(dp0
S'ZS3C4m'
p1
S'0'
p2
sS'A3A3'
p3
S'20.21395104'
p4
sS'Cd3Ct2'
p5
S'71.71012075'
p6
sS'ZS7C4'
p7
g2
sS'D3D3'
p8
S'29.05408462'
p9
sS'Z1cy'
p10
S'-2.623937532'
p11
sS'ZS7C2'
p12
S'3.886424892'
p13
sS'C2H'
p14
S'-7.17878414'
p15
sS'Z8u136'
p16
S'44.90478827'
p17
sS'D2A3'
p18
S'10.99946221'
p19
sS'D3Dd'
p20
S'86.55742638'
p21
sS'Z5t13'
p22
S'7.728523265'
p23
sS'ZA14'
p24
S'25.28822292'
p25
sS'Z5'
p26
S'-6.394954483'
p27
sS'ZS5C2'
p28
S'5.463811886'
p29
sS'ZS5C3'
p30
S'-1.967356948'
p31
sS'ZS10C3'
p32
g2
sS'ZS5C4'
p33
S'-2.371601004'
p34
sS'ZS7C3'
p35
g2
sS'ZS10C2'
p36
S'5.328139412'
p37
sS'C3H'
p38
S'17.05061747'
p39
sS'ZA1A'
p40
S'6.622857059'
p41
sS'ZS12C3'
p42
g2
sS'ZD10D3'
p43
g2
sS'ZD10D2'
p44
S'-6.493229649'
p45
sS'ZS12C2'
p46
S'1.566385227'
p47
sS'Z4c12'
p48
g2
sS'ZS14C4'
p49
g2
sS'ZS6D3'
p50
S'5.833521474'
p51
sS'ZS14C3'
p52
g2
sS'ZS14C2'
p53
S'1.065235846'
p54
sS'ZS3D3'
p55
S'95.38407725'
p56
sS'D3A3'
p57
S'16.98919104'
p58
sS'ZA44'
p59
g2
sS'ZS16C3'
p60
g2
sS'Z44'
p61
S'38.51828612'
p62
sS'ZAA'
p63
S'-4.441951411'
p64
sS'C4T2'
p65
S'72.73675801'
p66
sS'Z7u135'
p67
S'5.106777837'
p68
sS'C2A3'
p69
S'-1.954983984'
p70
sS'C3C3'
p71
S'-7.852703682'
p72
sS'C1C4'
p73
S'-3.127548972'
p74
sS'C1C1'
p75
S'-5.028804583'
p76
sS'C1C3'
p77
S'-11.2015829'
p78
sS'C3C4'
p79
S'8.657307952'
p80
sS'ZD5D2'
p81
S'6.859746057'
p82
sS'ZD5D3'
p83
S'-4.351922753'
p84
sS'ZS3C2'
p85
S'38.84351865'
p86
sS'ZS3C3'
p87
S'28.76149779'
p88
sS'ZS3C4'
p89
g2
sS'ZS10C4'
p90
g2
sS'C1T2'
p91
S'64.27606122'
p92
sS'ZD7D3'
p93
g2
sS'ZS4C3'
p94
S'15.78399014'
p95
sS'ZS4C2'
p96
S'27.68315546'
p97
sS'ZS4C4'
p98
S'5.30683948'
p99
sS'ZS6C4'
p100
S'-12.25217179'
p101
sS'ZD8D3'
p102
S'0.565517215'
p103
sS'ZD8D2'
p104
S'-3.102246019'
p105
sS'ZS6C3'
p106
S'-5.335090367'
p107
sS'ZS6C2'
p108
S'0.178913868'
p109
sS'ZD4D3'
p110
S'27.14665962'
p111
sS'ZD4D2'
p112
S'35.17143795'
p113
sS'ZS8C4'
p114
g2
sS'ZS8C3'
p115
g2
sS'ZS8C2'
p116
S'5.208046846'
p117
sS'ZD9D2'
p118
S'2.624975902'
p119
sS'ZD9D3'
p120
g2
sS"ZA1'4'"
p121
g2
sS'T1H'
p122
S'102.4565404'
p123
sS'Z7u13'
p124
S'11.00219089'
p125
sS'C4D3'
p126
S'31.95404975'
p127
sS'C4D2'
p128
S'25.93893074'
p129
sS'C1D2'
p130
S'14.59064025'
p131
sS'C1D3'
p132
S'12.91631222'
p133
sS'ZS12C4'
p134
g2
sS'Z10u1267'
p135
S'3.900009479'
p136
sS'ZD10Cd'
p137
S'3.983492696'
p138
sS'Z6s'
p139
S'-1.354818548'
p140
sS'Z8uE'
p141
S'46.59842768'
p142
sS'D1D1'
p143
S'-1.199713001'
p144
sS'D2D2'
p145
S'2.864276263'
p146
sS'D2D3'
p147
S'15.18765285'
p148
sS'ZS17C2'
p149
S'-0.671304908'
p150
sS'ZS17C3'
p151
g2
sS'ZS17C4'
p152
g2
sS'A2H'
p153
S'7.93116364'
p154
sS'C2C2'
p155
S'-6.400523251'
p156
sS'C2C3'
p157
S'-9.308460954'
p158
sS'C2C4'
p159
S'2.434694351'
p160
sS"ZA1'4"
p161
g2
sS'ZS11C2'
p162
S'4.448982836'
p163
sS'ZS11C3'
p164
g2
sS'C4C4'
p165
S'30.86027717'
p166
sS"ZA1'1"
p167
S'5.913681014'
p168
sS'D1D3'
p169
S'9.714265565'
p170
sS'D1D2'
p171
S'0.826258309'
p172
sS"ZA4'1"
p173
g2
sS'D2H'
p174
S'17.41613094'
p175
sS'ZS13C4'
p176
g2
sS'ZS13C2'
p177
S'1.804246785'
p178
sS'ZS13C3'
p179
g2
sS'C3A3'
p180
S'-4.105504953'
p181
sS'Z8uEE'
p182
S'125.5976236'
p183
sS'Z8uZZ'
p184
S'30.40193788'
p185
sS'Ct2Ct2'
p186
S'137.7089203'
p187
sS'C1C2'
p188
S'-5.838209271'
p189
sS'Z3c12'
p190
S'3.543972645'
p191
sS'Cd2Ct2'
p192
S'86.19414877'
p193
sS"ZA1'1'"
p194
S'8.472566624'
p195
sS'D2Dd'
p196
S'74.13567112'
p197
sS'Z8uZE'
p198
S'89.80190818'
p199
sS'ZD12D2'
p200
S'-0.877770804'
p201
sS'ZA11'
p202
S'5.817844353'
p203
sS'Z12u159E'
p204
S'4.199970159'
p205
sS'Z6ax'
p206
S'8.108468072'
p207
sS'ZS9C4'
p208
g2
sS'ZS9C2'
p209
S'6.002514955'
p210
sS'ZS9C3'
p211
g2
sS'ZS15C4'
p212
g2
sS'ZS15C2'
p213
S'0.664758519'
p214
sS'ZS15C3'
p215
g2
sS'D1Dd'
p216
S'68.6057596'
p217
sS'D1H'
p218
S'13.42494791'
p219
sS'A2A2'
p220
S'5.959650416'
p221
sS'A2A3'
p222
S'14.20691145'
p223
sS'C3D2'
p224
S'10.22985478'
p225
sS'C3D3'
p226
S'13.14421783'
p227
sS'T2T2'
p228
S'96.44285289'
p229
sS'ZS5D3'
p230
S'4.96827236'
p231
sS'Z8u1357'
p232
S'96.32885961'
p233
sS'C4A3'
p234
S'12.63860952'
p235
sS'ZS16C2'
p236
S'0.651836214'
p237
sS'C2T2'
p238
S'63.49217106'
p239
sS'C1A3'
p240
S'-2.224398123'
p241
sS'C0H'
p242
S'-18.6000093'
p243
sS'Cd2Cd2'
p244
S'18.40068427'
p245
sS'Cd2Cd3'
p246
S'19.06205512'
p247
sS'T1T1'
p248
S'21.7871162'
p249
sS'T1T2'
p250
S'59.35353262'
p251
sS"ZA4'4'"
p252
g2
sS'ZS16C4'
p253
g2
sS'ZD3D2'
p254
S'93.25354791'
p255
sS'ZD3D3'
p256
S'92.53339037'
p257
sS'ZD7D2'
p258
S'1.327401093'
p259
sS'ZD6D3'
p260
S'-4.704844224'
p261
sS'ZD6D2'
p262
S'0.262812927'
p263
sS'T2A3'
p264
S'52.88209949'
p265
sS'ZS11C4'
p266
g2
sS'Z14'
p267
S'16.10824633'
p268
sS'Z15'
p269
S'8.425753613'
p270
sS'Z6'
p271
S'2.050218158'
p272
sS'Z11'
p273
S'4.111456583'
p274
sS'ZS3C3m'
p275
g2
sS'C3T2'
p276
S'58.7182901'
p277
sS'Ca3Ca3'
p278
S'-3.84029884'
p279
sS'Z5c12'
p280
S'7.62131179'
p281
sS'C1H'
p282
S'-13.12930247'
p283
sS'C2D3'
p284
S'12.99054873'
p285
sS'C2D2'
p286
S'14.20433708'
p287
sS'Cd3Cd3'
p288
S'25.27095047'
p289
sS'ZS4D3'
p290
S'31.88024182'
p291
sS'ZS3C4mm'
p292
S'29.39152728'
p293
sS'DdDd'
p294
S'131.4900847'
p295
sS'Z10int'
p296
g2
s.