(dp0
S'ZS3C4m'
p1
S'0'
p2
sS'A3A3'
p3
S'17.21090106'
p4
sS'Cd3Ct2'
p5
S'71.71929733'
p6
sS'ZS7C4'
p7
g2
sS'D3D3'
p8
S'24.31244188'
p9
sS'Z1cy'
p10
S'-3.183526654'
p11
sS'ZS7C2'
p12
S'3.235473559'
p13
sS'C2H'
p14
S'-13.22040885'
p15
sS'Z8u136'
p16
g2
sS'D2A3'
p17
S'-3.451239004'
p18
sS'D3Dd'
p19
S'146.9292462'
p20
sS'Z5t13'
p21
S'7.510151657'
p22
sS'ZA14'
p23
g2
sS'Z5'
p24
S'-9.025180601'
p25
sS'ZS5C2'
p26
S'4.915767923'
p27
sS'ZS5C3'
p28
S'-2.792814908'
p29
sS'ZS10C3'
p30
g2
sS'ZS5C4'
p31
S'-5.741517215'
p32
sS'ZS7C3'
p33
g2
sS'ZS10C2'
p34
S'4.933315914'
p35
sS'C3H'
p36
S'-13.18475097'
p37
sS'ZA1A'
p38
S'12.76506562'
p39
sS'ZS12C3'
p40
g2
sS'ZD10D3'
p41
g2
sS'ZD10D2'
p42
g2
sS'ZS12C2'
p43
S'0.014907922'
p44
sS'Z4c12'
p45
g2
sS'ZS14C4'
p46
g2
sS'ZS6D3'
p47
S'2.624830782'
p48
sS'ZS14C3'
p49
g2
sS'ZS14C2'
p50
g2
sS'ZS3D3'
p51
g2
sS'D3A3'
p52
S'10.16577929'
p53
sS'ZA44'
p54
g2
sS'ZS16C3'
p55
g2
sS'Z44'
p56
S'44.28510931'
p57
sS'ZAA'
p58
S'0.98883249'
p59
sS'C4T2'
p60
S'67.76588458'
p61
sS'Z7u135'
p62
S'-16.30175216'
p63
sS'C2A3'
p64
S'-2.121524182'
p65
sS'C3C3'
p66
S'10.57148057'
p67
sS'C1C4'
p68
S'2.097075147'
p69
sS'C1C1'
p70
S'6.57132528'
p71
sS'C1C3'
p72
S'2.880886396'
p73
sS'C3C4'
p74
S'16.04592227'
p75
sS'ZD5D2'
p76
S'5.88511858'
p77
sS'ZD5D3'
p78
S'-6.524267322'
p79
sS'ZS3C2'
p80
S'38.02938495'
p81
sS'ZS3C3'
p82
S'27.71905583'
p83
sS'ZS3C4'
p84
g2
sS'ZS10C4'
p85
S'-1.862923687'
p86
sS'C1T2'
p87
S'62.67219928'
p88
sS'ZD7D3'
p89
g2
sS'ZS4C3'
p90
S'15.54732087'
p91
sS'ZS4C2'
p92
S'26.52853168'
p93
sS'ZS4C4'
p94
S'25.41893278'
p95
sS'ZS6C4'
p96
S'-11.6730392'
p97
sS'ZD8D3'
p98
g2
sS'ZD8D2'
p99
S'-6.072633322'
p100
sS'ZS6C3'
p101
S'-5.359790163'
p102
sS'ZS6C2'
p103
S'-0.429629976'
p104
sS'ZD4D3'
p105
g2
sS'ZD4D2'
p106
g2
sS'ZS8C4'
p107
g2
sS'ZS8C3'
p108
g2
sS'ZS8C2'
p109
S'4.646815067'
p110
sS'ZD9D2'
p111
g2
sS'ZD9D3'
p112
g2
sS"ZA1'4'"
p113
g2
sS'T1H'
p114
S'91.84620084'
p115
sS'Z7u13'
p116
g2
sS'C4D3'
p117
S'30.69706739'
p118
sS'C4D2'
p119
S'17.38652047'
p120
sS'C1D2'
p121
S'10.4561252'
p122
sS'C1D3'
p123
S'16.75355353'
p124
sS'ZS12C4'
p125
g2
sS'Z10u1267'
p126
g2
sS'ZD10Cd'
p127
g2
sS'Z6s'
p128
S'0.781610665'
p129
sS'Z8uE'
p130
g2
sS'D1D1'
p131
g2
sS'D2D2'
p132
S'4.304620847'
p133
sS'D2D3'
p134
S'14.25482716'
p135
sS'ZS17C2'
p136
g2
sS'ZS17C3'
p137
g2
sS'ZS17C4'
p138
g2
sS'A2H'
p139
S'4.960926998'
p140
sS'C2C2'
p141
S'0.837515603'
p142
sS'C2C3'
p143
S'3.624490839'
p144
sS'C2C4'
p145
S'6.181374222'
p146
sS"ZA1'4"
p147
g2
sS'ZS11C2'
p148
S'4.194189348'
p149
sS'ZS11C3'
p150
g2
sS'C4C4'
p151
S'29.6495059'
p152
sS"ZA1'1"
p153
S'9.385038295'
p154
sS'D1D3'
p155
S'7.417317203'
p156
sS'D1D2'
p157
S'0.936915233'
p158
sS"ZA4'1"
p159
g2
sS'D2H'
p160
S'20.49249943'
p161
sS'ZS13C4'
p162
g2
sS'ZS13C2'
p163
S'1.780209095'
p164
sS'ZS13C3'
p165
g2
sS'C3A3'
p166
S'2.478863366'
p167
sS'Z8uEE'
p168
g2
sS'Z8uZZ'
p169
S'38.18377137'
p170
sS'Ct2Ct2'
p171
S'119.0572022'
p172
sS'C1C2'
p173
S'2.355150894'
p174
sS'Z3c12'
p175
S'1.496397439'
p176
sS'Cd2Ct2'
p177
S'67.84984687'
p178
sS"ZA1'1'"
p179
S'11.43916385'
p180
sS'D2Dd'
p181
S'136.799947'
p182
sS'Z8uZE'
p183
g2
sS'ZD12D2'
p184
S'-1.337179721'
p185
sS'ZA11'
p186
S'9.25924377'
p187
sS'Z12u159E'
p188
g2
sS'Z6ax'
p189
S'6.845793394'
p190
sS'ZS9C4'
p191
g2
sS'ZS9C2'
p192
S'5.470019238'
p193
sS'ZS9C3'
p194
g2
sS'ZS15C4'
p195
g2
sS'ZS15C2'
p196
g2
sS'ZS15C3'
p197
g2
sS'D1Dd'
p198
S'-0.556679576'
p199
sS'D1H'
p200
S'10.74822666'
p201
sS'A2A2'
p202
S'3.212696091'
p203
sS'A2A3'
p204
S'13.33491133'
p205
sS'C3D2'
p206
S'12.08960351'
p207
sS'C3D3'
p208
S'20.15374211'
p209
sS'T2T2'
p210
S'95.17362564'
p211
sS'ZS5D3'
p212
S'1.756185685'
p213
sS'Z8u1357'
p214
S'110.877703'
p215
sS'C4A3'
p216
S'8.948662093'
p217
sS'ZS16C2'
p218
g2
sS'C2T2'
p219
S'61.29777125'
p220
sS'C1A3'
p221
S'-2.892871076'
p222
sS'C0H'
p223
g2
sS'Cd2Cd2'
p224
S'2.764966291'
p225
sS'Cd2Cd3'
p226
S'10.10300604'
p227
sS'T1T1'
p228
S'21.70759832'
p229
sS'T1T2'
p230
S'62.04938269'
p231
sS"ZA4'4'"
p232
g2
sS'ZS16C4'
p233
g2
sS'ZD3D2'
p234
g2
sS'ZD3D3'
p235
g2
sS'ZD7D2'
p236
S'3.492360488'
p237
sS'ZD6D3'
p238
S'-6.801522977'
p239
sS'ZD6D2'
p240
S'-1.567268221'
p241
sS'T2A3'
p242
S'65.27883437'
p243
sS'ZS11C4'
p244
g2
sS'Z14'
p245
S'15.62977334'
p246
sS'Z15'
p247
S'8.540568773'
p248
sS'Z6'
p249
S'2.218678179'
p250
sS'Z11'
p251
S'3.352321026'
p252
sS'ZS3C3m'
p253
S'31.03745067'
p254
sS'C3T2'
p255
S'64.30408535'
p256
sS'Ca3Ca3'
p257
S'-10.16989364'
p258
sS'Z5c12'
p259
S'5.071002223'
p260
sS'C1H'
p261
S'-16.69611512'
p262
sS'C2D3'
p263
S'16.47375428'
p264
sS'C2D2'
p265
S'9.682844814'
p266
sS'Cd3Cd3'
p267
S'23.24593617'
p268
sS'ZS4D3'
p269
S'30.00027613'
p270
sS'ZS3C4mm'
p271
S'23.57592735'
p272
sS'DdDd'
p273
g2
sS'Z10int'
p274
S'9.400182647'
p275
s.