(dp0
S'ZS3C4m'
p1
S'0'
p2
sS'A3A3'
p3
S'5.147101434'
p4
sS'Cd3Ct2'
p5
S'3.114735539'
p6
sS'ZS7C4'
p7
S'-0.113739969'
p8
sS'D3D3'
p9
S'4.305906543'
p10
sS'Z1cy'
p11
S'1.2649078'
p12
sS'ZS7C2'
p13
S'0.640792488'
p14
sS'C2H'
p15
S'6.065705138'
p16
sS'Z8u136'
p17
g2
sS'D2A3'
p18
S'15.30089395'
p19
sS'D3Dd'
p20
S'3.986130167'
p21
sS'Z5t13'
p22
S'0.477386603'
p23
sS'ZA14'
p24
g2
sS'Z5'
p25
S'-0.817189711'
p26
sS'ZS5C2'
p27
S'1.00577196'
p28
sS'ZS5C3'
p29
S'0.169389698'
p30
sS'ZS10C3'
p31
g2
sS'ZS5C4'
p32
S'-0.737972544'
p33
sS'ZS7C3'
p34
S'-0.113739969'
p35
sS'ZS10C2'
p36
S'0.427314724'
p37
sS'C3H'
p38
S'29.91991874'
p39
sS'ZA1A'
p40
S'-10.10542961'
p41
sS'ZS12C3'
p42
g2
sS'ZD10D3'
p43
g2
sS'ZD10D2'
p44
g2
sS'ZS12C2'
p45
S'0.390982306'
p46
sS'Z4c12'
p47
S'3.472662867'
p48
sS'ZS14C4'
p49
g2
sS'ZS6D3'
p50
S'0.148307707'
p51
sS'ZS14C3'
p52
g2
sS'ZS14C2'
p53
S'-0.194761904'
p54
sS'ZS3D3'
p55
g2
sS'D3A3'
p56
S'7.547011805'
p57
sS'ZA44'
p58
g2
sS'ZS16C3'
p59
g2
sS'Z44'
p60
S'-5.762107664'
p61
sS'ZAA'
p62
S'-2.513589321'
p63
sS'C4T2'
p64
S'5.687620756'
p65
sS'Z7u135'
p66
S'17.10180811'
p67
sS'C2A3'
p68
S'-0.28903335'
p69
sS'C3C3'
p70
S'-17.8332836'
p71
sS'C1C4'
p72
S'-4.899919831'
p73
sS'C1C1'
p74
S'-11.09806505'
p75
sS'C1C3'
p76
S'-13.68590916'
p77
sS'C3C4'
p78
S'-7.693053994'
p79
sS'ZD5D2'
p80
S'1.01048908'
p81
sS'ZD5D3'
p82
S'-1.103311273'
p83
sS'ZS3C2'
p84
S'1.341489566'
p85
sS'ZS3C3'
p86
S'1.333880974'
p87
sS'ZS3C4'
p88
g2
sS'ZS10C4'
p89
g2
sS'C1T2'
p90
S'2.046899854'
p91
sS'ZD7D3'
p92
g2
sS'ZS4C3'
p93
S'1.208474843'
p94
sS'ZS4C2'
p95
S'1.123455884'
p96
sS'ZS4C4'
p97
g2
sS'ZS6C4'
p98
S'-1.477475682'
p99
sS'ZD8D3'
p100
g2
sS'ZD8D2'
p101
S'2.513867451'
p102
sS'ZS6C3'
p103
S'-0.006602267'
p104
sS'ZS6C2'
p105
S'0.614220947'
p106
sS'ZD4D3'
p107
g2
sS'ZD4D2'
p108
S'0.922628963'
p109
sS'ZS8C4'
p110
g2
sS'ZS8C3'
p111
g2
sS'ZS8C2'
p112
S'0.550994196'
p113
sS'ZD9D2'
p114
g2
sS'ZD9D3'
p115
g2
sS"ZA1'4'"
p116
g2
sS'T1H'
p117
S'10.432984'
p118
sS'Z7u13'
p119
g2
sS'C4D3'
p120
S'1.816531894'
p121
sS'C4D2'
p122
S'8.596454182'
p123
sS'C1D2'
p124
S'4.802236879'
p125
sS'C1D3'
p126
S'-3.077731279'
p127
sS'ZS12C4'
p128
g2
sS'Z10u1267'
p129
g2
sS'ZD10Cd'
p130
g2
sS'Z6s'
p131
S'1.707084621'
p132
sS'Z8uE'
p133
g2
sS'D1D1'
p134
g2
sS'D2D2'
p135
S'-1.406574315'
p136
sS'D2D3'
p137
S'0.410984695'
p138
sS'ZS17C2'
p139
g2
sS'ZS17C3'
p140
g2
sS'ZS17C4'
p141
g2
sS'A2H'
p142
S'2.972800767'
p143
sS'C2C2'
p144
S'-7.272360471'
p145
sS'C2C3'
p146
S'-12.96552315'
p147
sS'C2C4'
p148
S'-3.729020074'
p149
sS"ZA1'4"
p150
g2
sS'ZS11C2'
p151
g2
sS'ZS11C3'
p152
g2
sS'C4C4'
p153
S'3.785183298'
p154
sS"ZA1'1"
p155
S'-4.241160223'
p156
sS'D1D3'
p157
S'2.003102745'
p158
sS'D1D2'
p159
S'0.257647212'
p160
sS"ZA4'1"
p161
g2
sS'D2H'
p162
S'-3.357496576'
p163
sS'ZS13C4'
p164
g2
sS'ZS13C2'
p165
g2
sS'ZS13C3'
p166
g2
sS'C3A3'
p167
S'-6.697186657'
p168
sS'Z8uEE'
p169
g2
sS'Z8uZZ'
p170
S'-7.378036805'
p171
sS'Ct2Ct2'
p172
S'12.07078712'
p173
sS'C1C2'
p174
S'-7.968197883'
p175
sS'Z3c12'
p176
S'-0.254135079'
p177
sS'Cd2Ct2'
p178
S'16.80342769'
p179
sS"ZA1'1'"
p180
S'-3.851634049'
p181
sS'D2Dd'
p182
S'2.856673505'
p183
sS'Z8uZE'
p184
g2
sS'ZD12D2'
p185
S'1.179886604'
p186
sS'ZA11'
p187
S'-4.275017847'
p188
sS'Z12u159E'
p189
g2
sS'Z6ax'
p190
S'1.09846316'
p191
sS'ZS9C4'
p192
g2
sS'ZS9C2'
p193
g2
sS'ZS9C3'
p194
g2
sS'ZS15C4'
p195
g2
sS'ZS15C2'
p196
S'-0.870143153'
p197
sS'ZS15C3'
p198
g2
sS'D1Dd'
p199
S'4.807674493'
p200
sS'D1H'
p201
S'2.182373213'
p202
sS'A2A2'
p203
S'2.505364149'
p204
sS'A2A3'
p205
S'1.374559926'
p206
sS'C3D2'
p207
S'-0.715960651'
p208
sS'C3D3'
p209
S'-8.476981947'
p210
sS'T2T2'
p211
S'2.211285127'
p212
sS'ZS5D3'
p213
S'-0.644366419'
p214
sS'Z8u1357'
p215
S'-23.24543455'
p216
sS'C4A3'
p217
S'3.42066209'
p218
sS'ZS16C2'
p219
S'-1.145112677'
p220
sS'C2T2'
p221
S'1.276362908'
p222
sS'C1A3'
p223
S'-0.388231394'
p224
sS'C0H'
p225
g2
sS'Cd2Cd2'
p226
S'19.25368219'
p227
sS'Cd2Cd3'
p228
S'11.87318398'
p229
sS'T1T1'
p230
S'0.433955805'
p231
sS'T1T2'
p232
S'-3.565500085'
p233
sS"ZA4'4'"
p234
g2
sS'ZS16C4'
p235
g2
sS'ZD3D2'
p236
g2
sS'ZD3D3'
p237
g2
sS'ZD7D2'
p238
S'-2.617864176'
p239
sS'ZD6D3'
p240
S'0.967501997'
p241
sS'ZD6D2'
p242
S'1.36415036'
p243
sS'T2A3'
p244
S'-11.40189934'
p245
sS'ZS11C4'
p246
g2
sS'Z14'
p247
S'0.329077873'
p248
sS'Z15'
p249
S'0.193081746'
p250
sS'Z6'
p251
S'-0.475996764'
p252
sS'Z11'
p253
S'-0.148456492'
p254
sS'ZS3C3m'
p255
S'2.289692302'
p256
sS'C3T2'
p257
S'-4.512552501'
p258
sS'Ca3Ca3'
p259
S'11.40717467'
p260
sS'Z5c12'
p261
S'0.752349005'
p262
sS'C1H'
p263
S'3.482795429'
p264
sS'C2D3'
p265
S'-2.353037206'
p266
sS'C2D2'
p267
S'5.19455557'
p268
sS'Cd3Cd3'
p269
S'3.522882817'
p270
sS'ZS4D3'
p271
S'0.816822943'
p272
sS'ZS3C4mm'
p273
S'1.183799117'
p274
sS'DdDd'
p275
g2
sS'Z10int'
p276
g2
s.